target datalayout = "e-m:e-p270:32:32-p271:32:32-p272:64:64-i64:64-i128:128-f80:128-n8:16:32:64-S128"
target triple = "x86_64-pc-linux-gnu"

%struct.rusage = type { %struct.timeval, %struct.timeval, %union.anon, %union.anon.0, %union.anon.1, %union.anon.2, %union.anon.3, %union.anon.4, %union.anon.5, %union.anon.6, %union.anon.7, %union.anon.8, %union.anon.9, %union.anon.10, %union.anon.11, %union.anon.12 }
%struct.timeval = type { i64, i64 }
%union.anon = type { i64 }
%union.anon.0 = type { i64 }
%union.anon.1 = type { i64 }
%union.anon.2 = type { i64 }
%union.anon.3 = type { i64 }
%union.anon.4 = type { i64 }
%union.anon.5 = type { i64 }
%union.anon.6 = type { i64 }
%union.anon.7 = type { i64 }
%union.anon.8 = type { i64 }
%union.anon.9 = type { i64 }
%union.anon.10 = type { i64 }
%union.anon.11 = type { i64 }
%union.anon.12 = type { i64 }
%union.ListCell = type { ptr }
%struct.Query = type { i32, i32, i32, i64, i8, ptr, i32, i8, i8, i8, i8, i8, i8, i8, i8, i8, i8, i8, ptr, ptr, ptr, ptr, ptr, i32, ptr, ptr, i32, ptr, ptr, ptr, ptr, ptr, i8, ptr, ptr, ptr, ptr, ptr, ptr, ptr, i32, ptr, ptr, ptr, ptr, i32, i32 }

@log_parser_stats = external global i8, align 1
@Debug_print_parse = external global i8, align 1
@.str.4 = private unnamed_addr constant [11 x i8] c"parse tree\00", align 1
@Debug_pretty_print = external global i8, align 1
@.str.5 = private unnamed_addr constant [20 x i8] c"REWRITER STATISTICS\00", align 1
@Debug_print_rewritten = external global i8, align 1
@.str.6 = private unnamed_addr constant [21 x i8] c"rewritten parse tree\00", align 1
@Save_r = internal global %struct.rusage zeroinitializer, align 8
@Save_t = internal global %struct.timeval zeroinitializer, align 8

; Function Attrs: nounwind uwtable
define dso_local void @ResetUsage() #0 {
  %1 = call i32 @getrusage(i32 noundef 0, ptr noundef @Save_r) #16
  %2 = call i32 @gettimeofday(ptr noundef @Save_t, ptr noundef null) #16
  ret void
}

; Function Attrs: nounwind uwtable
define dso_local ptr @pg_rewrite_query(ptr noundef %0) #0 {
  %2 = alloca ptr, align 8
  %3 = alloca ptr, align 8
  %4 = alloca %union.ListCell, align 8
  store ptr %0, ptr %2, align 8
  call void @llvm.lifetime.start.p0(i64 8, ptr %3) #16
  %5 = load i8, ptr @Debug_print_parse, align 1, !range !4, !noundef !5
  %6 = trunc i8 %5 to i1
  br i1 %6, label %7, label %11

7:                                                ; preds = %1
  %8 = load ptr, ptr %2, align 8
  %9 = load i8, ptr @Debug_pretty_print, align 1, !range !4, !noundef !5
  %10 = trunc i8 %9 to i1
  call void @elog_node_display(i32 noundef 15, ptr noundef @.str.4, ptr noundef %8, i1 noundef zeroext %10)
  br label %11

11:                                               ; preds = %7, %1
  %12 = load i8, ptr @log_parser_stats, align 1, !range !4, !noundef !5
  %13 = trunc i8 %12 to i1
  br i1 %13, label %14, label %15

14:                                               ; preds = %11
  call void @ResetUsage()
  br label %15

15:                                               ; preds = %14, %11
  %16 = load ptr, ptr %2, align 8
  %17 = getelementptr inbounds nuw %struct.Query, ptr %16, i32 0, i32 1
  %18 = load i32, ptr %17, align 4
  %19 = icmp eq i32 %18, 6
  br i1 %19, label %20, label %25

20:                                               ; preds = %15
  %21 = load ptr, ptr %2, align 8
  store ptr %21, ptr %4, align 8
  %22 = getelementptr inbounds nuw %union.ListCell, ptr %4, i32 0, i32 0
  %23 = load ptr, ptr %22, align 8
  %24 = call ptr @list_make1_impl(i32 noundef 1, ptr %23)
  store ptr %24, ptr %3, align 8
  br label %28

25:                                               ; preds = %15
  %26 = load ptr, ptr %2, align 8
  %27 = call ptr @QueryRewrite(ptr noundef %26)
  store ptr %27, ptr %3, align 8
  br label %28

28:                                               ; preds = %25, %20
  %29 = load i8, ptr @log_parser_stats, align 1, !range !4, !noundef !5
  %30 = trunc i8 %29 to i1
  br i1 %30, label %31, label %32

31:                                               ; preds = %28
  call void @ShowUsage(ptr noundef @.str.5)
  br label %32

32:                                               ; preds = %31, %28
  %33 = load i8, ptr @Debug_print_rewritten, align 1, !range !4, !noundef !5
  %34 = trunc i8 %33 to i1
  br i1 %34, label %35, label %39

35:                                               ; preds = %32
  %36 = load ptr, ptr %3, align 8
  %37 = load i8, ptr @Debug_pretty_print, align 1, !range !4, !noundef !5
  %38 = trunc i8 %37 to i1
  call void @elog_node_display(i32 noundef 15, ptr noundef @.str.6, ptr noundef %36, i1 noundef zeroext %38)
  br label %39

39:                                               ; preds = %35, %32
  %40 = load ptr, ptr %3, align 8
  call void @llvm.lifetime.end.p0(i64 8, ptr %3) #16
  ret ptr %40
}