; Function Attrs: nounwind uwtable
define dso_local ptr @pg_rewrite_query(ptr noundef %0) local_unnamed_addr #0 {
  %2 = load i8, ptr @Debug_print_parse, align 1, !range !5, !noundef !6
  %3 = trunc nuw i8 %2 to i1
  br i1 %3, label %4, label %7

4:                                                ; preds = %1
  %5 = load i8, ptr @Debug_pretty_print, align 1, !range !5, !noundef !6
  %6 = trunc nuw i8 %5 to i1
  tail call void @elog_node_display(i32 noundef 15, ptr noundef nonnull @.str.4, ptr noundef %0, i1 noundef zeroext %6) #22
  br label %7

7:                                                ; preds = %4, %1
  %8 = load i8, ptr @log_parser_stats, align 1, !range !5, !noundef !6
  %9 = trunc nuw i8 %8 to i1
  br i1 %9, label %10, label %13

10:                                               ; preds = %7
  %11 = tail call i32 @getrusage(i32 noundef 0, ptr noundef nonnull @Save_r) #22
  %12 = tail call i32 @gettimeofday(ptr noundef nonnull @Save_t, ptr noundef null) #22
  br label %13

13:                                               ; preds = %10, %7
  %14 = getelementptr inbounds nuw i8, ptr %0, i64 4
  %15 = load i32, ptr %14, align 4
  %16 = icmp eq i32 %15, 6
  br i1 %16, label %17, label %19

17:                                               ; preds = %13
  %18 = tail call ptr @list_make1_impl(i32 noundef 1, ptr nonnull %0) #22
  br label %21

19:                                               ; preds = %13
  %20 = tail call ptr @QueryRewrite(ptr noundef nonnull %0) #22
  br label %21

21:                                               ; preds = %19, %17
  %.0 = phi ptr [ %18, %17 ], [ %20, %19 ]
  %22 = load i8, ptr @log_parser_stats, align 1, !range !5, !noundef !6
  %23 = trunc nuw i8 %22 to i1
  br i1 %23, label %24, label %25

24:                                               ; preds = %21
  tail call void @ShowUsage(ptr noundef nonnull @.str.5)
  br label %25

25:                                               ; preds = %24, %21
  %26 = load i8, ptr @Debug_print_rewritten, align 1, !range !5, !noundef !6
  %27 = trunc nuw i8 %26 to i1
  br i1 %27, label %28, label %31

28:                                               ; preds = %25
  %29 = load i8, ptr @Debug_pretty_print, align 1, !range !5, !noundef !6
  %30 = trunc nuw i8 %29 to i1
  tail call void @elog_node_display(i32 noundef 15, ptr noundef nonnull @.str.6, ptr noundef %.0, i1 noundef zeroext %30) #22
  br label %31

31:                                               ; preds = %28, %25
  ret ptr %.0
}